; Function Attrs: mustprogress uwtable
define noundef double @_ZNK8QuantLib18FdmSquareRootFwdOp5zetapEm(ptr nocapture noundef nonnull readonly align 8 dereferenceable(80) %this, i64 noundef %i) local_unnamed_addr #3 align 2 {
entry:
  %add.i = add i64 %i, 1
  %call.i = tail call noundef double @_ZNK8QuantLib18FdmSquareRootFwdOp1vEm(ptr noundef nonnull readonly align 8 dereferenceable(80) %this, i64 noundef %add.i)
  %call2.i = tail call noundef double @_ZNK8QuantLib18FdmSquareRootFwdOp1vEm(ptr noundef nonnull readonly align 8 dereferenceable(80) %this, i64 noundef %i)
  %sub.i = fsub double %call.i, %call2.i
  %sub = add i64 %i, -1
  %call.i4 = tail call noundef double @_ZNK8QuantLib18FdmSquareRootFwdOp1vEm(ptr noundef nonnull readonly align 8 dereferenceable(80) %this, i64 noundef %i)
  %call2.i5 = tail call noundef double @_ZNK8QuantLib18FdmSquareRootFwdOp1vEm(ptr noundef nonnull readonly align 8 dereferenceable(80) %this, i64 noundef %sub)
  %sub.i6 = fsub double %call.i4, %call2.i5
  %call.i8 = tail call noundef double @_ZNK8QuantLib18FdmSquareRootFwdOp1vEm(ptr noundef nonnull readonly align 8 dereferenceable(80) %this, i64 noundef %add.i)
  %call2.i9 = tail call noundef double @_ZNK8QuantLib18FdmSquareRootFwdOp1vEm(ptr noundef nonnull readonly align 8 dereferenceable(80) %this, i64 noundef %i)
  %sub.i10 = fsub double %call.i8, %call2.i9
  %add = fadd double %sub.i6, %sub.i10
  %mul = fmul double %sub.i, %add
  ret double %mul
}